; Function Attrs: mustprogress uwtable
define dso_local void @_ZN24cmInstallScriptGenerator23GenerateScriptForConfigERSoRKNSt7__cxx1112basic_stringIcSt11char_traitsIcESaIcEEE23cmScriptGeneratorIndent(ptr noundef nonnull align 8 dereferenceable(249) %0, ptr noundef nonnull align 8 dereferenceable(8) %1, ptr noundef nonnull align 8 dereferenceable(32) %2, i32 %3) unnamed_addr #3 align 2 personality ptr @__gxx_personality_v0 {
  %5 = alloca %"class.std::__cxx11::basic_string", align 8
  call void @_ZNK24cmInstallScriptGenerator9GetScriptERKNSt7__cxx1112basic_stringIcSt11char_traitsIcESaIcEEE(ptr dead_on_unwind nonnull writable sret(%"class.std::__cxx11::basic_string") align 8 %5, ptr noundef nonnull align 8 dereferenceable(249) %0, ptr noundef nonnull align 8 dereferenceable(32) %2)
  %6 = getelementptr inbounds i8, ptr %0, i64 232
  %7 = load i8, ptr %6, align 8
  %8 = and i8 %7, 1
  %.not.i = icmp eq i8 %8, 0
  %9 = icmp sgt i32 %3, 0
  br i1 %.not.i, label %13, label %10

10:                                               ; preds = %4
  br i1 %9, label %.lr.ph.i.i.i, label %_ZlsRSo23cmScriptGeneratorIndent.exit.i

.lr.ph.i.i.i:                                     ; preds = %10, %.noexc
  %.03.i.i.i = phi i32 [ %12, %.noexc ], [ 0, %10 ]
  %11 = invoke noundef nonnull align 8 dereferenceable(8) ptr @_ZStlsISt11char_traitsIcEERSt13basic_ostreamIcT_ES5_PKc(ptr noundef nonnull align 8 dereferenceable(8) %1, ptr noundef nonnull @.str.5)
          to label %.noexc unwind label %.loopexit.split-lp.loopexit

.noexc:                                           ; preds = %.lr.ph.i.i.i
  %12 = add nuw nsw i32 %.03.i.i.i, 1
  %exitcond.not.i.i = icmp eq i32 %12, %3
  br i1 %exitcond.not.i.i, label %_ZlsRSo23cmScriptGeneratorIndent.exit.i, label %.lr.ph.i.i.i, !llvm.loop !7

13:                                               ; preds = %4
  br i1 %9, label %.lr.ph.i.i8.i, label %_ZlsRSo23cmScriptGeneratorIndent.exit11.i

.lr.ph.i.i8.i:                                    ; preds = %13, %.noexc5
  %.03.i.i9.i = phi i32 [ %15, %.noexc5 ], [ 0, %13 ]
  %14 = invoke noundef nonnull align 8 dereferenceable(8) ptr @_ZStlsISt11char_traitsIcEERSt13basic_ostreamIcT_ES5_PKc(ptr noundef nonnull align 8 dereferenceable(8) %1, ptr noundef nonnull @.str.5)
          to label %.noexc5 unwind label %.loopexit

.noexc5:                                          ; preds = %.lr.ph.i.i8.i
  %15 = add nuw nsw i32 %.03.i.i9.i, 1
  %exitcond.not.i10.i = icmp eq i32 %15, %3
  br i1 %exitcond.not.i10.i, label %_ZlsRSo23cmScriptGeneratorIndent.exit11.i, label %.lr.ph.i.i8.i, !llvm.loop !7

_ZlsRSo23cmScriptGeneratorIndent.exit11.i:        ; preds = %.noexc5, %13
  %16 = invoke noundef nonnull align 8 dereferenceable(8) ptr @_ZStlsISt11char_traitsIcEERSt13basic_ostreamIcT_ES5_PKc(ptr noundef nonnull align 8 dereferenceable(8) %1, ptr noundef nonnull @.str.3)
          to label %_ZlsRSo23cmScriptGeneratorIndent.exit.i unwind label %.loopexit.split-lp.loopexit.split-lp

_ZlsRSo23cmScriptGeneratorIndent.exit.i:          ; preds = %.noexc, %_ZlsRSo23cmScriptGeneratorIndent.exit11.i, %10
  %.sink12.i = phi ptr [ %1, %10 ], [ %16, %_ZlsRSo23cmScriptGeneratorIndent.exit11.i ], [ %1, %.noexc ]
  %.str.4.sink.i = phi ptr [ @.str.2, %10 ], [ @.str.4, %_ZlsRSo23cmScriptGeneratorIndent.exit11.i ], [ @.str.2, %.noexc ]
  %17 = invoke noundef nonnull align 8 dereferenceable(8) ptr @_ZStlsIcSt11char_traitsIcESaIcEERSt13basic_ostreamIT_T0_ES7_RKNSt7__cxx1112basic_stringIS4_S5_T1_EE(ptr noundef nonnull align 8 dereferenceable(8) %.sink12.i, ptr noundef nonnull align 8 dereferenceable(32) %5)
          to label %.noexc7 unwind label %.loopexit.split-lp.loopexit.split-lp

.noexc7:                                          ; preds = %_ZlsRSo23cmScriptGeneratorIndent.exit.i
  %18 = invoke noundef nonnull align 8 dereferenceable(8) ptr @_ZStlsISt11char_traitsIcEERSt13basic_ostreamIcT_ES5_PKc(ptr noundef nonnull align 8 dereferenceable(8) %17, ptr noundef nonnull %.str.4.sink.i)
          to label %_ZNK24cmInstallScriptGenerator20AddScriptInstallRuleERSo23cmScriptGeneratorIndentRKNSt7__cxx1112basic_stringIcSt11char_traitsIcESaIcEEE.exit unwind label %.loopexit.split-lp.loopexit.split-lp

_ZNK24cmInstallScriptGenerator20AddScriptInstallRuleERSo23cmScriptGeneratorIndentRKNSt7__cxx1112basic_stringIcSt11char_traitsIcESaIcEEE.exit: ; preds = %.noexc7
  call void @_ZNSt7__cxx1112basic_stringIcSt11char_traitsIcESaIcEED1Ev(ptr noundef nonnull align 8 dereferenceable(32) %5) #9
  ret void

.loopexit:                                        ; preds = %.lr.ph.i.i8.i
  %lpad.loopexit = landingpad { ptr, i32 }
          cleanup
  br label %.loopexit.split-lp

.loopexit.split-lp.loopexit:                      ; preds = %.lr.ph.i.i.i
  %lpad.loopexit9 = landingpad { ptr, i32 }
          cleanup
  br label %.loopexit.split-lp

.loopexit.split-lp.loopexit.split-lp:             ; preds = %.noexc7, %_ZlsRSo23cmScriptGeneratorIndent.exit.i, %_ZlsRSo23cmScriptGeneratorIndent.exit11.i
  %lpad.loopexit.split-lp10 = landingpad { ptr, i32 }
          cleanup
  br label %.loopexit.split-lp

.loopexit.split-lp:                               ; preds = %.loopexit.split-lp.loopexit, %.loopexit.split-lp.loopexit.split-lp, %.loopexit
  %lpad.phi = phi { ptr, i32 } [ %lpad.loopexit, %.loopexit ], [ %lpad.loopexit9, %.loopexit.split-lp.loopexit ], [ %lpad.loopexit.split-lp10, %.loopexit.split-lp.loopexit.split-lp ]
  call void @_ZNSt7__cxx1112basic_stringIcSt11char_traitsIcESaIcEED1Ev(ptr noundef nonnull align 8 dereferenceable(32) %5) #9
  resume { ptr, i32 } %lpad.phi
}